target datalayout = "e-m:e-p270:32:32-p271:32:32-p272:64:64-i64:64-i128:128-f80:128-n8:16:32:64-S128"
target triple = "x86_64-pc-linux-gnu"

%struct.pmix_object_t = type { %union.pthread_mutex_t, ptr, i32, %struct.pmix_tma }
%union.pthread_mutex_t = type { %struct.__pthread_mutex_s }
%struct.__pthread_mutex_s = type { i32, i32, i32, i32, i32, i16, i16, %struct.__pthread_internal_list }
%struct.__pthread_internal_list = type { ptr, ptr }
%struct.pmix_tma = type { ptr, ptr, ptr, ptr, ptr, ptr, ptr, ptr }
%struct.pmix_list_item_t = type { %struct.pmix_object_t, ptr, ptr, i32 }
%struct.prte_filem_raw_xfer_t = type { %struct.pmix_list_item_t, %struct.event, i32, ptr, i32, i8, ptr, ptr, i32, i32, i32, i32 }
%struct.event = type { %struct.event_callback, %union.anon.0, i32, ptr, %union.anon.2, i16, i16, %struct.timeval }
%struct.event_callback = type { %struct.anon, i16, i8, i8, %union.anon, ptr }
%struct.anon = type { ptr, ptr }
%union.anon = type { ptr }
%union.anon.0 = type { %struct.anon.1 }
%struct.anon.1 = type { ptr, ptr }
%union.anon.2 = type { %struct.anon.3 }
%struct.anon.3 = type { %struct.anon.4, %struct.timeval }
%struct.anon.4 = type { ptr, ptr }
%struct.timeval = type { i64, i64 }

; Function Attrs: nounwind uwtable
define internal void @xfer_destruct(ptr noundef %0) #0 {
  %2 = alloca ptr, align 8
  store ptr %0, ptr %2, align 8, !tbaa !38
  %3 = load ptr, ptr %2, align 8, !tbaa !38
  %4 = getelementptr inbounds nuw %struct.prte_filem_raw_xfer_t, ptr %3, i32 0, i32 5
  %5 = load i8, ptr %4, align 4, !tbaa !115, !range !65, !noundef !66
  %6 = trunc i8 %5 to i1
  br i1 %6, label %7, label %11

7:                                                ; preds = %1
  %8 = load ptr, ptr %2, align 8, !tbaa !38
  %9 = getelementptr inbounds nuw %struct.prte_filem_raw_xfer_t, ptr %8, i32 0, i32 1
  %10 = call i32 @event_del(ptr noundef %9)
  br label %11

11:                                               ; preds = %7, %1
  %12 = load ptr, ptr %2, align 8, !tbaa !38
  %13 = getelementptr inbounds nuw %struct.prte_filem_raw_xfer_t, ptr %12, i32 0, i32 6
  %14 = load ptr, ptr %13, align 8, !tbaa !74
  %15 = icmp ne ptr null, %14
  br i1 %15, label %16, label %20

16:                                               ; preds = %11
  %17 = load ptr, ptr %2, align 8, !tbaa !38
  %18 = getelementptr inbounds nuw %struct.prte_filem_raw_xfer_t, ptr %17, i32 0, i32 6
  %19 = load ptr, ptr %18, align 8, !tbaa !74
  call void @free(ptr noundef %19) #13
  br label %20

20:                                               ; preds = %16, %11
  %21 = load ptr, ptr %2, align 8, !tbaa !38
  %22 = getelementptr inbounds nuw %struct.prte_filem_raw_xfer_t, ptr %21, i32 0, i32 7
  %23 = load ptr, ptr %22, align 8, !tbaa !90
  %24 = icmp ne ptr null, %23
  br i1 %24, label %25, label %29

25:                                               ; preds = %20
  %26 = load ptr, ptr %2, align 8, !tbaa !38
  %27 = getelementptr inbounds nuw %struct.prte_filem_raw_xfer_t, ptr %26, i32 0, i32 7
  %28 = load ptr, ptr %27, align 8, !tbaa !90
  call void @free(ptr noundef %28) #13
  br label %29

29:                                               ; preds = %25, %20
  ret void
}