; Function Attrs: nounwind uwtable
define internal void @xfer_destruct(ptr noundef %0) #0 {
  %2 = getelementptr inbounds nuw i8, ptr %0, i64 292
  %3 = load i8, ptr %2, align 4, !tbaa !117, !range !69, !noundef !70
  %4 = trunc nuw i8 %3 to i1
  br i1 %4, label %5, label %8

5:                                                ; preds = %1
  %6 = getelementptr inbounds nuw i8, ptr %0, i64 144
  %7 = tail call i32 @event_del(ptr noundef nonnull %6) #16
  br label %8

8:                                                ; preds = %5, %1
  %9 = getelementptr inbounds nuw i8, ptr %0, i64 296
  %10 = load ptr, ptr %9, align 8, !tbaa !78
  %.not = icmp eq ptr %10, null
  br i1 %.not, label %12, label %11

11:                                               ; preds = %8
  tail call void @free(ptr noundef nonnull %10) #16
  br label %12

12:                                               ; preds = %11, %8
  %13 = getelementptr inbounds nuw i8, ptr %0, i64 304
  %14 = load ptr, ptr %13, align 8, !tbaa !93
  %.not7 = icmp eq ptr %14, null
  br i1 %.not7, label %16, label %15

15:                                               ; preds = %12
  tail call void @free(ptr noundef nonnull %14) #16
  br label %16

16:                                               ; preds = %15, %12
  ret void
}